target datalayout = "e-m:e-p270:32:32-p271:32:32-p272:64:64-i64:64-i128:128-f80:128-n8:16:32:64-S128"
target triple = "x86_64-pc-linux-gnu"

%struct.Vec_Int_t_ = type { i32, i32, ptr }
%struct.Bac_Ntk_t_ = type { ptr, i32, i32, i32, i32, i32, i32, %struct.Vec_Int_t_, %struct.Vec_Int_t_, %struct.Vec_Int_t_, %struct.Vec_Str_t_, %struct.Vec_Int_t_, %struct.Vec_Int_t_, %struct.Vec_Int_t_, %struct.Vec_Int_t_, %struct.Vec_Int_t_, %struct.Vec_Int_t_, %struct.Vec_Int_t_ }
%struct.Vec_Str_t_ = type { i32, i32, ptr }
%struct.Bac_Man_t_ = type { ptr, ptr, ptr, ptr, i32, i32, ptr, ptr, ptr, %struct.Vec_Int_t_, %struct.Vec_Int_t_, %struct.Vec_Int_t_, %struct.Vec_Int_t_, ptr, ptr, [4 x i32], [73 x ptr], [73 x ptr] }

@.str.4 = private unnamed_addr constant [2 x i8] c"\0A\00", align 1
@.str.5 = private unnamed_addr constant [4 x i8] c" %s\00", align 1

; Function Attrs: inlinehint nounwind uwtable
define internal i32 @Abc_Lit2Var(i32 noundef %0) #2 {
  %2 = alloca i32, align 4
  store i32 %0, ptr %2, align 4, !tbaa !20
  %3 = load i32, ptr %2, align 4, !tbaa !20
  %4 = ashr i32 %3, 1
  ret i32 %4
}

; Function Attrs: inlinehint nounwind uwtable
define internal signext i8 @Vec_StrEntry(ptr noundef %0, i32 noundef %1) #2 {
  %3 = alloca ptr, align 8
  %4 = alloca i32, align 4
  store ptr %0, ptr %3, align 8, !tbaa !66
  store i32 %1, ptr %4, align 4, !tbaa !20
  %5 = load ptr, ptr %3, align 8, !tbaa !66
  %6 = getelementptr inbounds nuw %struct.Vec_Str_t_, ptr %5, i32 0, i32 2
  %7 = load ptr, ptr %6, align 8, !tbaa !69
  %8 = load i32, ptr %4, align 4, !tbaa !20
  %9 = sext i32 %8 to i64
  %10 = getelementptr inbounds i8, ptr %7, i64 %9
  %11 = load i8, ptr %10, align 1, !tbaa !70
  ret i8 %11
}

; Function Attrs: inlinehint nounwind uwtable
define internal i32 @Bac_ObjType(ptr noundef %0, i32 noundef %1) #2 {
  %3 = alloca ptr, align 8
  %4 = alloca i32, align 4
  store ptr %0, ptr %3, align 8, !tbaa !28
  store i32 %1, ptr %4, align 4, !tbaa !20
  %5 = load ptr, ptr %3, align 8, !tbaa !28
  %6 = getelementptr inbounds nuw %struct.Bac_Ntk_t_, ptr %5, i32 0, i32 10
  %7 = load i32, ptr %4, align 4, !tbaa !20
  %8 = call signext i8 @Vec_StrEntry(ptr noundef %6, i32 noundef %7)
  %9 = zext i8 %8 to i32
  %10 = call i32 @Abc_Lit2Var(i32 noundef %9)
  ret i32 %10
}

; Function Attrs: inlinehint nounwind uwtable
define internal i32 @Bac_ObjIsBi(ptr noundef %0, i32 noundef %1) #2 {
  %3 = alloca ptr, align 8
  %4 = alloca i32, align 4
  store ptr %0, ptr %3, align 8, !tbaa !28
  store i32 %1, ptr %4, align 4, !tbaa !20
  %5 = load ptr, ptr %3, align 8, !tbaa !28
  %6 = load i32, ptr %4, align 4, !tbaa !20
  %7 = call i32 @Bac_ObjType(ptr noundef %5, i32 noundef %6)
  %8 = icmp eq i32 %7, 3
  %9 = zext i1 %8 to i32
  ret i32 %9
}

; Function Attrs: inlinehint nounwind uwtable
define internal i32 @Bac_ObjIsPo(ptr noundef %0, i32 noundef %1) #2 {
  %3 = alloca ptr, align 8
  %4 = alloca i32, align 4
  store ptr %0, ptr %3, align 8, !tbaa !28
  store i32 %1, ptr %4, align 4, !tbaa !20
  %5 = load ptr, ptr %3, align 8, !tbaa !28
  %6 = load i32, ptr %4, align 4, !tbaa !20
  %7 = call i32 @Bac_ObjType(ptr noundef %5, i32 noundef %6)
  %8 = icmp eq i32 %7, 2
  %9 = zext i1 %8 to i32
  ret i32 %9
}

; Function Attrs: inlinehint nounwind uwtable
define internal i32 @Bac_ObjNameInt(ptr noundef %0, i32 noundef %1) #2 {
  %3 = alloca ptr, align 8
  %4 = alloca i32, align 4
  store ptr %0, ptr %3, align 8, !tbaa !28
  store i32 %1, ptr %4, align 4, !tbaa !20
  %5 = load ptr, ptr %3, align 8, !tbaa !28
  %6 = getelementptr inbounds nuw %struct.Bac_Ntk_t_, ptr %5, i32 0, i32 13
  %7 = load i32, ptr %4, align 4, !tbaa !20
  %8 = call i32 @Vec_IntEntry(ptr noundef %6, i32 noundef %7)
  ret i32 %8
}

; Function Attrs: inlinehint nounwind uwtable
define internal i32 @Bac_ObjFanin(ptr noundef %0, i32 noundef %1) #2 {
  %3 = alloca ptr, align 8
  %4 = alloca i32, align 4
  store ptr %0, ptr %3, align 8, !tbaa !28
  store i32 %1, ptr %4, align 4, !tbaa !20
  %5 = load ptr, ptr %3, align 8, !tbaa !28
  %6 = getelementptr inbounds nuw %struct.Bac_Ntk_t_, ptr %5, i32 0, i32 11
  %7 = load i32, ptr %4, align 4, !tbaa !20
  %8 = call i32 @Vec_IntEntry(ptr noundef %6, i32 noundef %7)
  ret i32 %8
}

; Function Attrs: inlinehint nounwind uwtable
define internal i32 @Bac_ObjIsCo(ptr noundef %0, i32 noundef %1) #2 {
  %3 = alloca ptr, align 8
  %4 = alloca i32, align 4
  store ptr %0, ptr %3, align 8, !tbaa !28
  store i32 %1, ptr %4, align 4, !tbaa !20
  %5 = load ptr, ptr %3, align 8, !tbaa !28
  %6 = load i32, ptr %4, align 4, !tbaa !20
  %7 = call i32 @Bac_ObjIsPo(ptr noundef %5, i32 noundef %6)
  %8 = icmp ne i32 %7, 0
  br i1 %8, label %14, label %9

9:                                                ; preds = %2
  %10 = load ptr, ptr %3, align 8, !tbaa !28
  %11 = load i32, ptr %4, align 4, !tbaa !20
  %12 = call i32 @Bac_ObjIsBi(ptr noundef %10, i32 noundef %11)
  %13 = icmp ne i32 %12, 0
  br label %14

14:                                               ; preds = %9, %2
  %15 = phi i1 [ true, %2 ], [ %13, %9 ]
  %16 = zext i1 %15 to i32
  ret i32 %16
}

; Function Attrs: inlinehint nounwind uwtable
define internal ptr @Bac_ManStr(ptr noundef %0, i32 noundef %1) #2 {
  %3 = alloca ptr, align 8
  %4 = alloca i32, align 4
  store ptr %0, ptr %3, align 8, !tbaa !54
  store i32 %1, ptr %4, align 4, !tbaa !20
  %5 = load ptr, ptr %3, align 8, !tbaa !54
  %6 = getelementptr inbounds nuw %struct.Bac_Man_t_, ptr %5, i32 0, i32 2
  %7 = load ptr, ptr %6, align 8, !tbaa !65
  %8 = load i32, ptr %4, align 4, !tbaa !20
  %9 = call ptr @Abc_NamStr(ptr noundef %7, i32 noundef %8)
  ret ptr %9
}

; Function Attrs: inlinehint nounwind uwtable
define internal i32 @Abc_Lit2Var2(i32 noundef %0) #2 {
  %2 = alloca i32, align 4
  store i32 %0, ptr %2, align 4, !tbaa !20
  %3 = load i32, ptr %2, align 4, !tbaa !20
  %4 = ashr i32 %3, 2
  ret i32 %4
}

; Function Attrs: inlinehint nounwind uwtable
define internal i32 @Bac_ObjName(ptr noundef %0, i32 noundef %1) #2 {
  %3 = alloca ptr, align 8
  %4 = alloca i32, align 4
  store ptr %0, ptr %3, align 8, !tbaa !28
  store i32 %1, ptr %4, align 4, !tbaa !20
  %5 = load ptr, ptr %3, align 8, !tbaa !28
  %6 = load i32, ptr %4, align 4, !tbaa !20
  %7 = call i32 @Bac_ObjIsCo(ptr noundef %5, i32 noundef %6)
  %8 = icmp ne i32 %7, 0
  br i1 %8, label %9, label %15

9:                                                ; preds = %2
  %10 = load ptr, ptr %3, align 8, !tbaa !28
  %11 = load ptr, ptr %3, align 8, !tbaa !28
  %12 = load i32, ptr %4, align 4, !tbaa !20
  %13 = call i32 @Bac_ObjFanin(ptr noundef %11, i32 noundef %12)
  %14 = call i32 @Bac_ObjNameInt(ptr noundef %10, i32 noundef %13)
  br label %19

15:                                               ; preds = %2
  %16 = load ptr, ptr %3, align 8, !tbaa !28
  %17 = load i32, ptr %4, align 4, !tbaa !20
  %18 = call i32 @Bac_ObjNameInt(ptr noundef %16, i32 noundef %17)
  br label %19

19:                                               ; preds = %15, %9
  %20 = phi i32 [ %14, %9 ], [ %18, %15 ]
  ret i32 %20
}

; Function Attrs: inlinehint nounwind uwtable
define internal ptr @Bac_NtkStr(ptr noundef %0, i32 noundef %1) #2 {
  %3 = alloca ptr, align 8
  %4 = alloca i32, align 4
  store ptr %0, ptr %3, align 8, !tbaa !28
  store i32 %1, ptr %4, align 4, !tbaa !20
  %5 = load ptr, ptr %3, align 8, !tbaa !28
  %6 = getelementptr inbounds nuw %struct.Bac_Ntk_t_, ptr %5, i32 0, i32 0
  %7 = load ptr, ptr %6, align 8, !tbaa !40
  %8 = load i32, ptr %4, align 4, !tbaa !20
  %9 = call ptr @Bac_ManStr(ptr noundef %7, i32 noundef %8)
  ret ptr %9
}

; Function Attrs: inlinehint nounwind uwtable
define internal i32 @Bac_ObjNameId(ptr noundef %0, i32 noundef %1) #2 {
  %3 = alloca ptr, align 8
  %4 = alloca i32, align 4
  store ptr %0, ptr %3, align 8, !tbaa !28
  store i32 %1, ptr %4, align 4, !tbaa !20
  %5 = load ptr, ptr %3, align 8, !tbaa !28
  %6 = load i32, ptr %4, align 4, !tbaa !20
  %7 = call i32 @Bac_ObjName(ptr noundef %5, i32 noundef %6)
  %8 = call i32 @Abc_Lit2Var2(i32 noundef %7)
  ret i32 %8
}

; Function Attrs: inlinehint nounwind uwtable
define internal ptr @Bac_ObjNameStr(ptr noundef %0, i32 noundef %1) #2 {
  %3 = alloca ptr, align 8
  %4 = alloca i32, align 4
  store ptr %0, ptr %3, align 8, !tbaa !28
  store i32 %1, ptr %4, align 4, !tbaa !20
  %5 = load ptr, ptr %3, align 8, !tbaa !28
  %6 = load ptr, ptr %3, align 8, !tbaa !28
  %7 = load i32, ptr %4, align 4, !tbaa !20
  %8 = call i32 @Bac_ObjNameId(ptr noundef %6, i32 noundef %7)
  %9 = call ptr @Bac_NtkStr(ptr noundef %5, i32 noundef %8)
  ret ptr %9
}

; Function Attrs: inlinehint nounwind uwtable
define internal i32 @Vec_IntEntry(ptr noundef %0, i32 noundef %1) #2 {
  %3 = alloca ptr, align 8
  %4 = alloca i32, align 4
  store ptr %0, ptr %3, align 8, !tbaa !32
  store i32 %1, ptr %4, align 4, !tbaa !20
  %5 = load ptr, ptr %3, align 8, !tbaa !32
  %6 = getelementptr inbounds nuw %struct.Vec_Int_t_, ptr %5, i32 0, i32 2
  %7 = load ptr, ptr %6, align 8, !tbaa !36
  %8 = load i32, ptr %4, align 4, !tbaa !20
  %9 = sext i32 %8 to i64
  %10 = getelementptr inbounds i32, ptr %7, i64 %9
  %11 = load i32, ptr %10, align 4, !tbaa !20
  ret i32 %11
}

; Function Attrs: inlinehint nounwind uwtable
define internal i32 @Vec_IntSize(ptr noundef %0) #2 {
  %2 = alloca ptr, align 8
  store ptr %0, ptr %2, align 8, !tbaa !32
  %3 = load ptr, ptr %2, align 8, !tbaa !32
  %4 = getelementptr inbounds nuw %struct.Vec_Int_t_, ptr %3, i32 0, i32 1
  %5 = load i32, ptr %4, align 4, !tbaa !35
  ret i32 %5
}

; Function Attrs: nounwind uwtable
define void @Bac_ManWriteBlifArray(ptr noundef %0, ptr noundef %1, ptr noundef %2, i32 noundef %3) #0 {
  %5 = alloca ptr, align 8
  %6 = alloca ptr, align 8
  %7 = alloca ptr, align 8
  %8 = alloca i32, align 4
  %9 = alloca i32, align 4
  %10 = alloca i32, align 4
  store ptr %0, ptr %5, align 8, !tbaa !12
  store ptr %1, ptr %6, align 8, !tbaa !28
  store ptr %2, ptr %7, align 8, !tbaa !32
  store i32 %3, ptr %8, align 4, !tbaa !20
  call void @llvm.lifetime.start.p0(i64 4, ptr %9) #5
  call void @llvm.lifetime.start.p0(i64 4, ptr %10) #5
  store i32 0, ptr %10, align 4, !tbaa !20
  br label %11

11:                                               ; preds = %28, %4
  %12 = load i32, ptr %10, align 4, !tbaa !20
  %13 = load ptr, ptr %7, align 8, !tbaa !32
  %14 = call i32 @Vec_IntSize(ptr noundef %13)
  %15 = icmp slt i32 %12, %14
  br i1 %15, label %16, label %20

16:                                               ; preds = %11
  %17 = load ptr, ptr %7, align 8, !tbaa !32
  %18 = load i32, ptr %10, align 4, !tbaa !20
  %19 = call i32 @Vec_IntEntry(ptr noundef %17, i32 noundef %18)
  store i32 %19, ptr %9, align 4, !tbaa !20
  br label %20

20:                                               ; preds = %16, %11
  %21 = phi i1 [ false, %11 ], [ true, %16 ]
  br i1 %21, label %22, label %31

22:                                               ; preds = %20
  %23 = load ptr, ptr %5, align 8, !tbaa !12
  %24 = load ptr, ptr %6, align 8, !tbaa !28
  %25 = load i32, ptr %9, align 4, !tbaa !20
  %26 = call ptr @Bac_ObjNameStr(ptr noundef %24, i32 noundef %25)
  %27 = call i32 (ptr, ptr, ...) @fprintf(ptr noundef %23, ptr noundef @.str.5, ptr noundef %26) #5
  br label %28

28:                                               ; preds = %22
  %29 = load i32, ptr %10, align 4, !tbaa !20
  %30 = add nsw i32 %29, 1
  store i32 %30, ptr %10, align 4, !tbaa !20
  br label %11, !llvm.loop !37

31:                                               ; preds = %20
  %32 = load i32, ptr %8, align 4, !tbaa !20
  %33 = icmp sge i32 %32, 0
  br i1 %33, label %34, label %40

34:                                               ; preds = %31
  %35 = load ptr, ptr %5, align 8, !tbaa !12
  %36 = load ptr, ptr %6, align 8, !tbaa !28
  %37 = load i32, ptr %8, align 4, !tbaa !20
  %38 = call ptr @Bac_ObjNameStr(ptr noundef %36, i32 noundef %37)
  %39 = call i32 (ptr, ptr, ...) @fprintf(ptr noundef %35, ptr noundef @.str.5, ptr noundef %38) #5
  br label %40

40:                                               ; preds = %34, %31
  %41 = load ptr, ptr %5, align 8, !tbaa !12
  %42 = call i32 (ptr, ptr, ...) @fprintf(ptr noundef %41, ptr noundef @.str.4) #5
  call void @llvm.lifetime.end.p0(i64 4, ptr %10) #5
  call void @llvm.lifetime.end.p0(i64 4, ptr %9) #5
  ret void
}