; Function Attrs: nounwind uwtable
define void @Bac_ManWriteBlifArray(ptr noundef captures(none) %0, ptr noundef readonly captures(none) %1, ptr noundef readonly captures(none) %2, i32 noundef %3) local_unnamed_addr #0 {
  %5 = getelementptr i8, ptr %2, i64 4
  %.val23 = load i32, ptr %5, align 4, !tbaa !17
  %6 = icmp sgt i32 %.val23, 0
  br i1 %6, label %.lr.ph, label %.critedge

.lr.ph:                                           ; preds = %4
  %7 = getelementptr i8, ptr %2, i64 8
  %8 = getelementptr i8, ptr %1, i64 88
  %9 = getelementptr i8, ptr %1, i64 136
  %10 = getelementptr i8, ptr %1, i64 104
  br label %11

11:                                               ; preds = %.lr.ph, %Bac_ObjNameStr.exit
  %indvars.iv = phi i64 [ 0, %.lr.ph ], [ %indvars.iv.next, %Bac_ObjNameStr.exit ]
  %.val13 = load ptr, ptr %7, align 8, !tbaa !18
  %12 = getelementptr inbounds nuw i32, ptr %.val13, i64 %indvars.iv
  %13 = load i32, ptr %12, align 4, !tbaa !19
  %.val.i.i.i = load ptr, ptr %8, align 8, !tbaa !26
  %14 = sext i32 %13 to i64
  %15 = getelementptr inbounds i8, ptr %.val.i.i.i, i64 %14
  %16 = load i8, ptr %15, align 1, !tbaa !29
  %17 = and i8 %16, -4
  %narrow.i.not.i.i.i = icmp eq i8 %17, 4
  br i1 %narrow.i.not.i.i.i, label %18, label %23

18:                                               ; preds = %11
  %.val6.i.i.i = load ptr, ptr %10, align 8, !tbaa !18
  %19 = getelementptr inbounds i32, ptr %.val6.i.i.i, i64 %14
  %20 = load i32, ptr %19, align 4, !tbaa !19
  %.val7.i.i.i = load ptr, ptr %9, align 8, !tbaa !18
  %21 = sext i32 %20 to i64
  %22 = getelementptr inbounds i32, ptr %.val7.i.i.i, i64 %21
  br label %Bac_ObjNameStr.exit

23:                                               ; preds = %11
  %.val8.i.i.i = load ptr, ptr %9, align 8, !tbaa !18
  %24 = getelementptr inbounds i32, ptr %.val8.i.i.i, i64 %14
  br label %Bac_ObjNameStr.exit

Bac_ObjNameStr.exit:                              ; preds = %18, %23
  %.in.i.i.i = phi ptr [ %22, %18 ], [ %24, %23 ]
  %25 = load i32, ptr %.in.i.i.i, align 4, !tbaa !19
  %26 = ashr i32 %25, 2
  %.val.i = load ptr, ptr %1, align 8, !tbaa !30
  %27 = getelementptr i8, ptr %.val.i, i64 16
  %.val.val.i = load ptr, ptr %27, align 8, !tbaa !33
  %28 = tail call ptr @Abc_NamStr(ptr noundef %.val.val.i, i32 noundef range(i32 -536870912, 536870912) %26) #5
  %29 = tail call i32 (ptr, ptr, ...) @fprintf(ptr noundef %0, ptr noundef nonnull @.str.5, ptr noundef %28) #5
  %indvars.iv.next = add nuw nsw i64 %indvars.iv, 1
  %.val = load i32, ptr %5, align 4, !tbaa !17
  %30 = sext i32 %.val to i64
  %31 = icmp slt i64 %indvars.iv.next, %30
  br i1 %31, label %11, label %.critedge, !llvm.loop !38

.critedge:                                        ; preds = %Bac_ObjNameStr.exit, %4
  %32 = icmp sgt i32 %3, -1
  br i1 %32, label %33, label %54

33:                                               ; preds = %.critedge
  %34 = getelementptr i8, ptr %1, i64 88
  %.val.i.i.i14 = load ptr, ptr %34, align 8, !tbaa !26
  %35 = zext nneg i32 %3 to i64
  %36 = getelementptr inbounds nuw i8, ptr %.val.i.i.i14, i64 %35
  %37 = load i8, ptr %36, align 1, !tbaa !29
  %38 = and i8 %37, -4
  %narrow.i.not.i.i.i15 = icmp eq i8 %38, 4
  br i1 %narrow.i.not.i.i.i15, label %39, label %46

39:                                               ; preds = %33
  %40 = getelementptr i8, ptr %1, i64 104
  %.val6.i.i.i20 = load ptr, ptr %40, align 8, !tbaa !18
  %41 = getelementptr inbounds nuw i32, ptr %.val6.i.i.i20, i64 %35
  %42 = load i32, ptr %41, align 4, !tbaa !19
  %43 = getelementptr i8, ptr %1, i64 136
  %.val7.i.i.i21 = load ptr, ptr %43, align 8, !tbaa !18
  %44 = sext i32 %42 to i64
  %45 = getelementptr inbounds i32, ptr %.val7.i.i.i21, i64 %44
  br label %Bac_ObjNameStr.exit22

46:                                               ; preds = %33
  %47 = getelementptr i8, ptr %1, i64 136
  %.val8.i.i.i16 = load ptr, ptr %47, align 8, !tbaa !18
  %48 = getelementptr inbounds nuw i32, ptr %.val8.i.i.i16, i64 %35
  br label %Bac_ObjNameStr.exit22

Bac_ObjNameStr.exit22:                            ; preds = %39, %46
  %.in.i.i.i17 = phi ptr [ %45, %39 ], [ %48, %46 ]
  %49 = load i32, ptr %.in.i.i.i17, align 4, !tbaa !19
  %50 = ashr i32 %49, 2
  %.val.i18 = load ptr, ptr %1, align 8, !tbaa !30
  %51 = getelementptr i8, ptr %.val.i18, i64 16
  %.val.val.i19 = load ptr, ptr %51, align 8, !tbaa !33
  %52 = tail call ptr @Abc_NamStr(ptr noundef %.val.val.i19, i32 noundef range(i32 -536870912, 536870912) %50) #5
  %53 = tail call i32 (ptr, ptr, ...) @fprintf(ptr noundef %0, ptr noundef nonnull @.str.5, ptr noundef %52) #5
  br label %54

54:                                               ; preds = %Bac_ObjNameStr.exit22, %.critedge
  %fputc = tail call i32 @fputc(i32 10, ptr %0)
  ret void
}